target datalayout = "e-m:e-p270:32:32-p271:32:32-p272:64:64-i64:64-i128:128-f80:128-n8:16:32:64-S128"
target triple = "x86_64-pc-linux-gnu"

%struct.WindowAgg = type { %struct.Plan, i32, i32, ptr, ptr, ptr, i32, ptr, ptr, ptr, i32, ptr, ptr, ptr, ptr, i32, i32, i32, i8, i8, i8 }
%struct.Plan = type { i32, i32, double, double, double, i32, i8, i8, i8, i32, ptr, ptr, ptr, ptr, ptr, ptr, ptr }
%struct.WindowAggState = type { %struct.ScanState, ptr, i32, i32, ptr, ptr, ptr, ptr, ptr, i32, i32, i32, i32, i64, i64, i64, i64, ptr, i64, i64, i32, i32, ptr, ptr, i64, i64, %struct.FmgrInfo, %struct.FmgrInfo, i32, i8, i8, i8, i8, ptr, i64, i64, i64, i64, i64, ptr, ptr, ptr, ptr, i8, i8, i8, i8, i8, i8, i8, ptr, ptr, ptr, ptr, ptr, ptr }
%struct.ScanState = type { %struct.PlanState, ptr, ptr, ptr }
%struct.PlanState = type { i32, ptr, ptr, ptr, ptr, ptr, ptr, ptr, ptr, ptr, ptr, ptr, ptr, ptr, ptr, ptr, ptr, ptr, i8, ptr, ptr, ptr, ptr, ptr, i8, i8, i8, i8, i8, i8, i8, i8 }
%struct.FmgrInfo = type { ptr, i32, i16, i8, i8, i8, ptr, ptr, ptr }
%struct.WindowStatePerFuncData = type { ptr, ptr, i32, %struct.FmgrInfo, i32, i16, i8, i8, i32, ptr }
%struct.WindowObjectData = type { i32, ptr, ptr, ptr, i32, i32, i64, i64 }

@work_mem = external global i32, align 4

; Function Attrs: noinline nounwind uwtable
define internal void @prepare_tuplestore(ptr noundef %0) #7 {
  %2 = alloca ptr, align 8
  %3 = alloca ptr, align 8
  %4 = alloca i32, align 4
  %5 = alloca i32, align 4
  %6 = alloca ptr, align 8
  %7 = alloca i32, align 4
  %8 = alloca i32, align 4
  %9 = alloca ptr, align 8
  %10 = alloca ptr, align 8
  store ptr %0, ptr %2, align 8
  call void @llvm.lifetime.start.p0(i64 8, ptr %3) #8
  %11 = load ptr, ptr %2, align 8
  %12 = getelementptr inbounds nuw %struct.WindowAggState, ptr %11, i32 0, i32 0
  %13 = getelementptr inbounds nuw %struct.ScanState, ptr %12, i32 0, i32 0
  %14 = getelementptr inbounds nuw %struct.PlanState, ptr %13, i32 0, i32 1
  %15 = load ptr, ptr %14, align 8
  store ptr %15, ptr %3, align 8
  call void @llvm.lifetime.start.p0(i64 4, ptr %4) #8
  %16 = load ptr, ptr %2, align 8
  %17 = getelementptr inbounds nuw %struct.WindowAggState, ptr %16, i32 0, i32 21
  %18 = load i32, ptr %17, align 4
  store i32 %18, ptr %4, align 4
  call void @llvm.lifetime.start.p0(i64 4, ptr %5) #8
  %19 = load ptr, ptr %2, align 8
  %20 = getelementptr inbounds nuw %struct.WindowAggState, ptr %19, i32 0, i32 2
  %21 = load i32, ptr %20, align 8
  store i32 %21, ptr %5, align 4
  %22 = load i32, ptr @work_mem, align 4
  %23 = call ptr @tuplestore_begin_heap(i1 noundef zeroext false, i1 noundef zeroext false, i32 noundef %22)
  %24 = load ptr, ptr %2, align 8
  %25 = getelementptr inbounds nuw %struct.WindowAggState, ptr %24, i32 0, i32 8
  store ptr %23, ptr %25, align 8
  %26 = load ptr, ptr %2, align 8
  %27 = getelementptr inbounds nuw %struct.WindowAggState, ptr %26, i32 0, i32 9
  store i32 0, ptr %27, align 8
  %28 = load ptr, ptr %2, align 8
  %29 = getelementptr inbounds nuw %struct.WindowAggState, ptr %28, i32 0, i32 8
  %30 = load ptr, ptr %29, align 8
  call void @tuplestore_set_eflags(ptr noundef %30, i32 noundef 0)
  %31 = load ptr, ptr %2, align 8
  %32 = getelementptr inbounds nuw %struct.WindowAggState, ptr %31, i32 0, i32 3
  %33 = load i32, ptr %32, align 4
  %34 = icmp sgt i32 %33, 0
  br i1 %34, label %35, label %63

35:                                               ; preds = %1
  call void @llvm.lifetime.start.p0(i64 8, ptr %6) #8
  %36 = load ptr, ptr %2, align 8
  %37 = getelementptr inbounds nuw %struct.WindowAggState, ptr %36, i32 0, i32 17
  %38 = load ptr, ptr %37, align 8
  store ptr %38, ptr %6, align 8
  call void @llvm.lifetime.start.p0(i64 4, ptr %7) #8
  store i32 0, ptr %7, align 4
  %39 = load i32, ptr %4, align 4
  %40 = and i32 %39, 32
  %41 = icmp ne i32 %40, 0
  br i1 %41, label %42, label %46

42:                                               ; preds = %35
  %43 = load i32, ptr %4, align 4
  %44 = and i32 %43, 229376
  %45 = icmp ne i32 %44, 0
  br i1 %45, label %46, label %55

46:                                               ; preds = %42, %35
  %47 = load ptr, ptr %2, align 8
  %48 = getelementptr inbounds nuw %struct.WindowAggState, ptr %47, i32 0, i32 8
  %49 = load ptr, ptr %48, align 8
  %50 = call i32 @tuplestore_alloc_read_pointer(ptr noundef %49, i32 noundef 0)
  %51 = load ptr, ptr %6, align 8
  %52 = getelementptr inbounds nuw %struct.WindowObjectData, ptr %51, i32 0, i32 4
  store i32 %50, ptr %52, align 8
  %53 = load i32, ptr %7, align 4
  %54 = or i32 %53, 8
  store i32 %54, ptr %7, align 4
  br label %55

55:                                               ; preds = %46, %42
  %56 = load ptr, ptr %2, align 8
  %57 = getelementptr inbounds nuw %struct.WindowAggState, ptr %56, i32 0, i32 8
  %58 = load ptr, ptr %57, align 8
  %59 = load i32, ptr %7, align 4
  %60 = call i32 @tuplestore_alloc_read_pointer(ptr noundef %58, i32 noundef %59)
  %61 = load ptr, ptr %6, align 8
  %62 = getelementptr inbounds nuw %struct.WindowObjectData, ptr %61, i32 0, i32 5
  store i32 %60, ptr %62, align 4
  call void @llvm.lifetime.end.p0(i64 4, ptr %7) #8
  call void @llvm.lifetime.end.p0(i64 8, ptr %6) #8
  br label %63

63:                                               ; preds = %55, %1
  call void @llvm.lifetime.start.p0(i64 4, ptr %8) #8
  store i32 0, ptr %8, align 4
  br label %64

64:                                               ; preds = %97, %63
  %65 = load i32, ptr %8, align 4
  %66 = load i32, ptr %5, align 4
  %67 = icmp slt i32 %65, %66
  br i1 %67, label %69, label %68

68:                                               ; preds = %64
  call void @llvm.lifetime.end.p0(i64 4, ptr %8) #8
  br label %100

69:                                               ; preds = %64
  call void @llvm.lifetime.start.p0(i64 8, ptr %9) #8
  %70 = load ptr, ptr %2, align 8
  %71 = getelementptr inbounds nuw %struct.WindowAggState, ptr %70, i32 0, i32 4
  %72 = load ptr, ptr %71, align 8
  %73 = load i32, ptr %8, align 4
  %74 = sext i32 %73 to i64
  %75 = getelementptr inbounds %struct.WindowStatePerFuncData, ptr %72, i64 %74
  store ptr %75, ptr %9, align 8
  %76 = load ptr, ptr %9, align 8
  %77 = getelementptr inbounds nuw %struct.WindowStatePerFuncData, ptr %76, i32 0, i32 7
  %78 = load i8, ptr %77, align 1, !range !4, !noundef !5
  %79 = trunc i8 %78 to i1
  br i1 %79, label %96, label %80

80:                                               ; preds = %69
  call void @llvm.lifetime.start.p0(i64 8, ptr %10) #8
  %81 = load ptr, ptr %9, align 8
  %82 = getelementptr inbounds nuw %struct.WindowStatePerFuncData, ptr %81, i32 0, i32 9
  %83 = load ptr, ptr %82, align 8
  store ptr %83, ptr %10, align 8
  %84 = load ptr, ptr %2, align 8
  %85 = getelementptr inbounds nuw %struct.WindowAggState, ptr %84, i32 0, i32 8
  %86 = load ptr, ptr %85, align 8
  %87 = call i32 @tuplestore_alloc_read_pointer(ptr noundef %86, i32 noundef 0)
  %88 = load ptr, ptr %10, align 8
  %89 = getelementptr inbounds nuw %struct.WindowObjectData, ptr %88, i32 0, i32 4
  store i32 %87, ptr %89, align 8
  %90 = load ptr, ptr %2, align 8
  %91 = getelementptr inbounds nuw %struct.WindowAggState, ptr %90, i32 0, i32 8
  %92 = load ptr, ptr %91, align 8
  %93 = call i32 @tuplestore_alloc_read_pointer(ptr noundef %92, i32 noundef 8)
  %94 = load ptr, ptr %10, align 8
  %95 = getelementptr inbounds nuw %struct.WindowObjectData, ptr %94, i32 0, i32 5
  store i32 %93, ptr %95, align 4
  call void @llvm.lifetime.end.p0(i64 8, ptr %10) #8
  br label %96

96:                                               ; preds = %80, %69
  call void @llvm.lifetime.end.p0(i64 8, ptr %9) #8
  br label %97

97:                                               ; preds = %96
  %98 = load i32, ptr %8, align 4
  %99 = add i32 %98, 1
  store i32 %99, ptr %8, align 4
  br label %64, !llvm.loop !33

100:                                              ; preds = %68
  %101 = load ptr, ptr %2, align 8
  %102 = getelementptr inbounds nuw %struct.WindowAggState, ptr %101, i32 0, i32 11
  store i32 -1, ptr %102, align 8
  %103 = load ptr, ptr %2, align 8
  %104 = getelementptr inbounds nuw %struct.WindowAggState, ptr %103, i32 0, i32 10
  store i32 -1, ptr %104, align 4
  %105 = load i32, ptr %4, align 4
  %106 = and i32 %105, 10
  %107 = icmp ne i32 %106, 0
  br i1 %107, label %108, label %149

108:                                              ; preds = %100
  %109 = load i32, ptr %4, align 4
  %110 = and i32 %109, 512
  %111 = icmp ne i32 %110, 0
  br i1 %111, label %112, label %117

112:                                              ; preds = %108
  %113 = load ptr, ptr %3, align 8
  %114 = getelementptr inbounds nuw %struct.WindowAgg, ptr %113, i32 0, i32 6
  %115 = load i32, ptr %114, align 8
  %116 = icmp ne i32 %115, 0
  br i1 %116, label %121, label %117

117:                                              ; preds = %112, %108
  %118 = load i32, ptr %4, align 4
  %119 = and i32 %118, 10240
  %120 = icmp ne i32 %119, 0
  br i1 %120, label %121, label %128

121:                                              ; preds = %117, %112
  %122 = load ptr, ptr %2, align 8
  %123 = getelementptr inbounds nuw %struct.WindowAggState, ptr %122, i32 0, i32 8
  %124 = load ptr, ptr %123, align 8
  %125 = call i32 @tuplestore_alloc_read_pointer(ptr noundef %124, i32 noundef 0)
  %126 = load ptr, ptr %2, align 8
  %127 = getelementptr inbounds nuw %struct.WindowAggState, ptr %126, i32 0, i32 10
  store i32 %125, ptr %127, align 4
  br label %128

128:                                              ; preds = %121, %117
  %129 = load i32, ptr %4, align 4
  %130 = and i32 %129, 1024
  %131 = icmp ne i32 %130, 0
  br i1 %131, label %132, label %137

132:                                              ; preds = %128
  %133 = load ptr, ptr %3, align 8
  %134 = getelementptr inbounds nuw %struct.WindowAgg, ptr %133, i32 0, i32 6
  %135 = load i32, ptr %134, align 8
  %136 = icmp ne i32 %135, 0
  br i1 %136, label %141, label %137

137:                                              ; preds = %132, %128
  %138 = load i32, ptr %4, align 4
  %139 = and i32 %138, 20480
  %140 = icmp ne i32 %139, 0
  br i1 %140, label %141, label %148

141:                                              ; preds = %137, %132
  %142 = load ptr, ptr %2, align 8
  %143 = getelementptr inbounds nuw %struct.WindowAggState, ptr %142, i32 0, i32 8
  %144 = load ptr, ptr %143, align 8
  %145 = call i32 @tuplestore_alloc_read_pointer(ptr noundef %144, i32 noundef 0)
  %146 = load ptr, ptr %2, align 8
  %147 = getelementptr inbounds nuw %struct.WindowAggState, ptr %146, i32 0, i32 11
  store i32 %145, ptr %147, align 8
  br label %148

148:                                              ; preds = %141, %137
  br label %149

149:                                              ; preds = %148, %100
  %150 = load ptr, ptr %2, align 8
  %151 = getelementptr inbounds nuw %struct.WindowAggState, ptr %150, i32 0, i32 12
  store i32 -1, ptr %151, align 4
  %152 = load i32, ptr %4, align 4
  %153 = and i32 %152, 196608
  %154 = icmp ne i32 %153, 0
  br i1 %154, label %155, label %167

155:                                              ; preds = %149
  %156 = load ptr, ptr %3, align 8
  %157 = getelementptr inbounds nuw %struct.WindowAgg, ptr %156, i32 0, i32 6
  %158 = load i32, ptr %157, align 8
  %159 = icmp ne i32 %158, 0
  br i1 %159, label %160, label %167

160:                                              ; preds = %155
  %161 = load ptr, ptr %2, align 8
  %162 = getelementptr inbounds nuw %struct.WindowAggState, ptr %161, i32 0, i32 8
  %163 = load ptr, ptr %162, align 8
  %164 = call i32 @tuplestore_alloc_read_pointer(ptr noundef %163, i32 noundef 0)
  %165 = load ptr, ptr %2, align 8
  %166 = getelementptr inbounds nuw %struct.WindowAggState, ptr %165, i32 0, i32 12
  store i32 %164, ptr %166, align 4
  br label %167

167:                                              ; preds = %160, %155, %149
  call void @llvm.lifetime.end.p0(i64 4, ptr %5) #8
  call void @llvm.lifetime.end.p0(i64 4, ptr %4) #8
  call void @llvm.lifetime.end.p0(i64 8, ptr %3) #8
  ret void
}