; Function Attrs: noinline nounwind uwtable
define internal fastcc void @prepare_tuplestore(ptr noundef captures(none) initializes((272, 284)) %0) unnamed_addr #6 {
  %2 = getelementptr inbounds nuw i8, ptr %0, i64 8
  %3 = load ptr, ptr %2, align 8
  %4 = getelementptr inbounds nuw i8, ptr %0, i64 356
  %5 = load i32, ptr %4, align 4
  %6 = getelementptr inbounds nuw i8, ptr %0, i64 232
  %7 = load i32, ptr %6, align 8
  %8 = load i32, ptr @work_mem, align 4
  %9 = tail call ptr @tuplestore_begin_heap(i1 noundef zeroext false, i1 noundef zeroext false, i32 noundef %8) #9
  %10 = getelementptr inbounds nuw i8, ptr %0, i64 272
  store ptr %9, ptr %10, align 8
  %11 = getelementptr inbounds nuw i8, ptr %0, i64 280
  store i32 0, ptr %11, align 8
  tail call void @tuplestore_set_eflags(ptr noundef %9, i32 noundef 0) #9
  %12 = getelementptr inbounds nuw i8, ptr %0, i64 236
  %13 = load i32, ptr %12, align 4
  %14 = icmp sgt i32 %13, 0
  br i1 %14, label %15, label %27

15:                                               ; preds = %1
  %16 = getelementptr inbounds nuw i8, ptr %0, i64 328
  %17 = load ptr, ptr %16, align 8
  %18 = and i32 %5, 229408
  %or.cond = icmp eq i32 %18, 32
  br i1 %or.cond, label %23, label %19

19:                                               ; preds = %15
  %20 = load ptr, ptr %10, align 8
  %21 = tail call i32 @tuplestore_alloc_read_pointer(ptr noundef %20, i32 noundef 0) #9
  %22 = getelementptr inbounds nuw i8, ptr %17, i64 32
  store i32 %21, ptr %22, align 8
  br label %23

23:                                               ; preds = %15, %19
  %.0 = phi i32 [ 8, %19 ], [ 0, %15 ]
  %24 = load ptr, ptr %10, align 8
  %25 = tail call i32 @tuplestore_alloc_read_pointer(ptr noundef %24, i32 noundef %.0) #9
  %26 = getelementptr inbounds nuw i8, ptr %17, i64 36
  store i32 %25, ptr %26, align 4
  br label %27

27:                                               ; preds = %23, %1
  %28 = icmp sgt i32 %7, 0
  br i1 %28, label %.lr.ph, label %._crit_edge

.lr.ph:                                           ; preds = %27
  %29 = getelementptr inbounds nuw i8, ptr %0, i64 240
  %wide.trip.count = zext nneg i32 %7 to i64
  br label %33

._crit_edge:                                      ; preds = %48, %27
  %30 = getelementptr inbounds nuw i8, ptr %0, i64 288
  store i32 -1, ptr %30, align 8
  %31 = getelementptr inbounds nuw i8, ptr %0, i64 284
  store i32 -1, ptr %31, align 4
  %32 = and i32 %5, 10
  %.not46 = icmp eq i32 %32, 0
  br i1 %.not46, label %69, label %49

33:                                               ; preds = %.lr.ph, %48
  %indvars.iv = phi i64 [ 0, %.lr.ph ], [ %indvars.iv.next, %48 ]
  %34 = load ptr, ptr %29, align 8
  %35 = getelementptr inbounds nuw %struct.WindowStatePerFuncData, ptr %34, i64 %indvars.iv
  %36 = getelementptr inbounds nuw i8, ptr %35, i64 79
  %37 = load i8, ptr %36, align 1, !range !4, !noundef !5
  %38 = trunc nuw i8 %37 to i1
  br i1 %38, label %48, label %39

39:                                               ; preds = %33
  %40 = getelementptr inbounds nuw i8, ptr %35, i64 88
  %41 = load ptr, ptr %40, align 8
  %42 = load ptr, ptr %10, align 8
  %43 = tail call i32 @tuplestore_alloc_read_pointer(ptr noundef %42, i32 noundef 0) #9
  %44 = getelementptr inbounds nuw i8, ptr %41, i64 32
  store i32 %43, ptr %44, align 8
  %45 = load ptr, ptr %10, align 8
  %46 = tail call i32 @tuplestore_alloc_read_pointer(ptr noundef %45, i32 noundef 8) #9
  %47 = getelementptr inbounds nuw i8, ptr %41, i64 36
  store i32 %46, ptr %47, align 4
  br label %48

48:                                               ; preds = %39, %33
  %indvars.iv.next = add nuw nsw i64 %indvars.iv, 1
  %exitcond.not = icmp eq i64 %indvars.iv.next, %wide.trip.count
  br i1 %exitcond.not, label %._crit_edge, label %33, !llvm.loop !32

49:                                               ; preds = %._crit_edge
  %50 = and i32 %5, 512
  %.not47 = icmp eq i32 %50, 0
  br i1 %.not47, label %55, label %51

51:                                               ; preds = %49
  %52 = getelementptr inbounds nuw i8, ptr %3, i64 136
  %53 = load i32, ptr %52, align 8
  %.not48 = icmp eq i32 %53, 0
  %54 = and i32 %5, 10240
  %.not49 = icmp eq i32 %54, 0
  %or.cond55 = select i1 %.not48, i1 %.not49, i1 false
  br i1 %or.cond55, label %59, label %56

55:                                               ; preds = %49
  %.old = and i32 %5, 10240
  %.not49.old = icmp eq i32 %.old, 0
  br i1 %.not49.old, label %59, label %56

56:                                               ; preds = %55, %51
  %57 = load ptr, ptr %10, align 8
  %58 = tail call i32 @tuplestore_alloc_read_pointer(ptr noundef %57, i32 noundef 0) #9
  store i32 %58, ptr %31, align 4
  br label %59

59:                                               ; preds = %51, %56, %55
  %60 = and i32 %5, 1024
  %.not50 = icmp eq i32 %60, 0
  br i1 %.not50, label %65, label %61

61:                                               ; preds = %59
  %62 = getelementptr inbounds nuw i8, ptr %3, i64 136
  %63 = load i32, ptr %62, align 8
  %.not51 = icmp eq i32 %63, 0
  %64 = and i32 %5, 20480
  %.not52 = icmp eq i32 %64, 0
  %or.cond57 = select i1 %.not51, i1 %.not52, i1 false
  br i1 %or.cond57, label %69, label %66

65:                                               ; preds = %59
  %.old56 = and i32 %5, 20480
  %.not52.old = icmp eq i32 %.old56, 0
  br i1 %.not52.old, label %69, label %66

66:                                               ; preds = %65, %61
  %67 = load ptr, ptr %10, align 8
  %68 = tail call i32 @tuplestore_alloc_read_pointer(ptr noundef %67, i32 noundef 0) #9
  store i32 %68, ptr %30, align 8
  br label %69

69:                                               ; preds = %61, %65, %66, %._crit_edge
  %70 = getelementptr inbounds nuw i8, ptr %0, i64 292
  store i32 -1, ptr %70, align 4
  %71 = and i32 %5, 196608
  %.not53 = icmp eq i32 %71, 0
  br i1 %.not53, label %78, label %72

72:                                               ; preds = %69
  %73 = getelementptr inbounds nuw i8, ptr %3, i64 136
  %74 = load i32, ptr %73, align 8
  %.not54 = icmp eq i32 %74, 0
  br i1 %.not54, label %78, label %75

75:                                               ; preds = %72
  %76 = load ptr, ptr %10, align 8
  %77 = tail call i32 @tuplestore_alloc_read_pointer(ptr noundef %76, i32 noundef 0) #9
  store i32 %77, ptr %70, align 4
  br label %78

78:                                               ; preds = %75, %72, %69
  ret void
}